target datalayout = "e-m:e-p270:32:32-p271:32:32-p272:64:64-i64:64-i128:128-f80:128-n8:16:32:64-S128"
target triple = "x86_64-pc-linux-gnu"

%struct.H5O_msg_class_t = type { i32, ptr, i64, i32, ptr, ptr, ptr, ptr, ptr, ptr, ptr, ptr, ptr, ptr, ptr, ptr, ptr, ptr, ptr, ptr }
%struct.H5O_t = type { %struct.H5C_cache_entry_t, i64, i64, i8, i64, i8, i32, i8, i8, i64, i64, i64, i64, i32, i32, i64, i64, ptr, i64, i64, i64, i64, ptr, i8, ptr }
%struct.H5C_cache_entry_t = type { ptr, i64, i64, ptr, i8, ptr, i8, i8, i8, i8, i32, i8, i8, i8, i8, i8, i32, ptr, i32, i32, i32, i32, i32, i8, i8, ptr, ptr, ptr, ptr, ptr, ptr, i8, i32, i8, i64, ptr, i64, i64, i32, i8, i32, i32, i8, ptr, ptr, ptr }
%struct.H5O_mesg_t = type { ptr, i8, i8, i32, i32, ptr, ptr, i64 }
%struct.H5O_chunk_t = type { i64, i64, i64, ptr, ptr }

@H5O_init_g = external global i8, align 1
@H5_libterm_g = external global i8, align 1
@.str = private unnamed_addr constant [102 x i8] c"generated/home/dtcxzyw/WorkSpace/Projects/compilers/llvm-opt-benchmark/bench/hdf5/hdf5/src/H5Oalloc.c\00", align 1
@H5E_OHDR_g = external global i64, align 8
@H5E_CANTPROTECT_g = external global i64, align 8
@H5O_MSG_NULL = external constant [1 x %struct.H5O_msg_class_t], align 16
@H5E_CANTUNPROTECT_g = external global i64, align 8
@.str.9 = private unnamed_addr constant [40 x i8] c"unable to unprotect object header chunk\00", align 1
@__func__.H5O__release_mesg = private unnamed_addr constant [18 x i8] c"H5O__release_mesg\00", align 1
@H5E_CANTDELETE_g = external global i64, align 8
@.str.18 = private unnamed_addr constant [54 x i8] c"unable to delete file space for object header message\00", align 1
@.str.19 = private unnamed_addr constant [38 x i8] c"unable to protect object header chunk\00", align 1
@H5E_CANTREMOVE_g = external global i64, align 8
@.str.20 = private unnamed_addr constant [29 x i8] c"can't eliminate gap in chunk\00", align 1

; Function Attrs: nounwind uwtable
define i32 @H5O__release_mesg(ptr noundef %0, ptr noundef %1, ptr noundef %2, i1 noundef zeroext %3) #0 {
  %5 = alloca ptr, align 8
  %6 = alloca ptr, align 8
  %7 = alloca ptr, align 8
  %8 = alloca i8, align 1
  %9 = alloca ptr, align 8
  %10 = alloca i8, align 1
  %11 = alloca i32, align 4
  %12 = alloca i8, align 1
  store ptr %0, ptr %5, align 8, !tbaa !30
  store ptr %1, ptr %6, align 8, !tbaa !3
  store ptr %2, ptr %7, align 8, !tbaa !29
  %13 = zext i1 %3 to i8
  store i8 %13, ptr %8, align 1, !tbaa !12
  call void @llvm.lifetime.start.p0(i64 8, ptr %9) #6
  store ptr null, ptr %9, align 8, !tbaa !55
  call void @llvm.lifetime.start.p0(i64 1, ptr %10) #6
  store i8 0, ptr %10, align 1, !tbaa !12
  call void @llvm.lifetime.start.p0(i64 4, ptr %11) #6
  store i32 0, ptr %11, align 4, !tbaa !10
  call void @llvm.lifetime.start.p0(i64 1, ptr %12) #6
  store i8 0, ptr %12, align 1, !tbaa !12
  %14 = load i8, ptr @H5O_init_g, align 1, !tbaa !12, !range !14, !noundef !15
  %15 = trunc i8 %14 to i1
  br i1 %15, label %20, label %16

16:                                               ; preds = %4
  %17 = load i8, ptr @H5_libterm_g, align 1, !tbaa !12, !range !14, !noundef !15
  %18 = trunc i8 %17 to i1
  %19 = xor i1 %18, true
  br label %20

20:                                               ; preds = %16, %4
  %21 = phi i1 [ true, %4 ], [ %19, %16 ]
  %22 = xor i1 %21, true
  %23 = xor i1 %22, true
  %24 = zext i1 %23 to i32
  %25 = sext i32 %24 to i64
  %26 = call i64 @llvm.expect.i64(i64 %25, i64 1)
  %27 = icmp ne i64 %26, 0
  br i1 %27, label %28, label %214

28:                                               ; preds = %20
  %29 = load i8, ptr %8, align 1, !tbaa !12, !range !14, !noundef !15
  %30 = trunc i8 %29 to i1
  br i1 %30, label %31, label %57

31:                                               ; preds = %28
  %32 = load ptr, ptr %5, align 8, !tbaa !30
  %33 = load ptr, ptr %6, align 8, !tbaa !3
  %34 = load ptr, ptr %7, align 8, !tbaa !29
  %35 = call i32 @H5O__delete_mesg(ptr noundef %32, ptr noundef %33, ptr noundef %34)
  %36 = icmp slt i32 %35, 0
  br i1 %36, label %37, label %56

37:                                               ; preds = %31
  br label %38

38:                                               ; preds = %37
  br label %39

39:                                               ; preds = %38
  br label %40

40:                                               ; preds = %39
  %41 = load i64, ptr @H5E_OHDR_g, align 8, !tbaa !8
  %42 = load i64, ptr @H5E_CANTDELETE_g, align 8, !tbaa !8
  %43 = call i32 (ptr, ptr, i32, i64, i64, ptr, ...) @H5E_printf_stack(ptr noundef @.str, ptr noundef @__func__.H5O__release_mesg, i32 noundef 1340, i64 noundef %41, i64 noundef %42, ptr noundef @.str.18)
  br label %44

44:                                               ; preds = %40
  br label %45

45:                                               ; preds = %44
  store i8 1, ptr %12, align 1, !tbaa !12
  %46 = load i8, ptr %12, align 1, !tbaa !12, !range !14, !noundef !15
  %47 = trunc i8 %46 to i1
  %48 = zext i1 %47 to i8
  store i8 %48, ptr %12, align 1, !tbaa !12
  br label %49

49:                                               ; preds = %45
  br label %50

50:                                               ; preds = %49
  br label %51

51:                                               ; preds = %50
  store i32 -1, ptr %11, align 4, !tbaa !10
  br label %187

52:                                               ; No predecessors!
  br label %53

53:                                               ; preds = %52
  br label %54

54:                                               ; preds = %53
  br label %55

55:                                               ; preds = %54
  br label %56

56:                                               ; preds = %55, %31
  br label %57

57:                                               ; preds = %56, %28
  %58 = load ptr, ptr %5, align 8, !tbaa !30
  %59 = load ptr, ptr %6, align 8, !tbaa !3
  %60 = load ptr, ptr %7, align 8, !tbaa !29
  %61 = getelementptr inbounds nuw %struct.H5O_mesg_t, ptr %60, i32 0, i32 4
  %62 = load i32, ptr %61, align 8, !tbaa !56
  %63 = call ptr @H5O__chunk_protect(ptr noundef %58, ptr noundef %59, i32 noundef %62)
  store ptr %63, ptr %9, align 8, !tbaa !55
  %64 = icmp eq ptr null, %63
  br i1 %64, label %65, label %84

65:                                               ; preds = %57
  br label %66

66:                                               ; preds = %65
  br label %67

67:                                               ; preds = %66
  br label %68

68:                                               ; preds = %67
  %69 = load i64, ptr @H5E_OHDR_g, align 8, !tbaa !8
  %70 = load i64, ptr @H5E_CANTPROTECT_g, align 8, !tbaa !8
  %71 = call i32 (ptr, ptr, i32, i64, i64, ptr, ...) @H5E_printf_stack(ptr noundef @.str, ptr noundef @__func__.H5O__release_mesg, i32 noundef 1344, i64 noundef %69, i64 noundef %70, ptr noundef @.str.19)
  br label %72

72:                                               ; preds = %68
  br label %73

73:                                               ; preds = %72
  store i8 1, ptr %12, align 1, !tbaa !12
  %74 = load i8, ptr %12, align 1, !tbaa !12, !range !14, !noundef !15
  %75 = trunc i8 %74 to i1
  %76 = zext i1 %75 to i8
  store i8 %76, ptr %12, align 1, !tbaa !12
  br label %77

77:                                               ; preds = %73
  br label %78

78:                                               ; preds = %77
  br label %79

79:                                               ; preds = %78
  store i32 -1, ptr %11, align 4, !tbaa !10
  br label %187

80:                                               ; No predecessors!
  br label %81

81:                                               ; preds = %80
  br label %82

82:                                               ; preds = %81
  br label %83

83:                                               ; preds = %82
  br label %84

84:                                               ; preds = %83, %57
  %85 = load ptr, ptr %7, align 8, !tbaa !29
  %86 = call i32 @H5O__msg_free_mesg(ptr noundef %85)
  %87 = load ptr, ptr %7, align 8, !tbaa !29
  %88 = getelementptr inbounds nuw %struct.H5O_mesg_t, ptr %87, i32 0, i32 0
  store ptr @H5O_MSG_NULL, ptr %88, align 8, !tbaa !59
  %89 = load ptr, ptr %7, align 8, !tbaa !29
  %90 = getelementptr inbounds nuw %struct.H5O_mesg_t, ptr %89, i32 0, i32 6
  %91 = load ptr, ptr %90, align 8, !tbaa !63
  %92 = load ptr, ptr %7, align 8, !tbaa !29
  %93 = getelementptr inbounds nuw %struct.H5O_mesg_t, ptr %92, i32 0, i32 7
  %94 = load i64, ptr %93, align 8, !tbaa !62
  call void @llvm.memset.p0.i64(ptr align 1 %91, i8 0, i64 %94, i1 false)
  %95 = load ptr, ptr %7, align 8, !tbaa !29
  %96 = getelementptr inbounds nuw %struct.H5O_mesg_t, ptr %95, i32 0, i32 2
  store i8 0, ptr %96, align 1, !tbaa !83
  %97 = load ptr, ptr %7, align 8, !tbaa !29
  %98 = getelementptr inbounds nuw %struct.H5O_mesg_t, ptr %97, i32 0, i32 1
  store i8 1, ptr %98, align 8, !tbaa !66
  store i8 1, ptr %10, align 1, !tbaa !12
  %99 = load ptr, ptr %6, align 8, !tbaa !3
  %100 = getelementptr inbounds nuw %struct.H5O_t, ptr %99, i32 0, i32 22
  %101 = load ptr, ptr %100, align 8, !tbaa !43
  %102 = load ptr, ptr %7, align 8, !tbaa !29
  %103 = getelementptr inbounds nuw %struct.H5O_mesg_t, ptr %102, i32 0, i32 4
  %104 = load i32, ptr %103, align 8, !tbaa !56
  %105 = zext i32 %104 to i64
  %106 = getelementptr inbounds nuw %struct.H5O_chunk_t, ptr %101, i64 %105
  %107 = getelementptr inbounds nuw %struct.H5O_chunk_t, ptr %106, i32 0, i32 2
  %108 = load i64, ptr %107, align 8, !tbaa !49
  %109 = icmp ne i64 %108, 0
  br i1 %109, label %110, label %186

110:                                              ; preds = %84
  %111 = load ptr, ptr %6, align 8, !tbaa !3
  %112 = load ptr, ptr %7, align 8, !tbaa !29
  %113 = load ptr, ptr %6, align 8, !tbaa !3
  %114 = getelementptr inbounds nuw %struct.H5O_t, ptr %113, i32 0, i32 22
  %115 = load ptr, ptr %114, align 8, !tbaa !43
  %116 = load ptr, ptr %7, align 8, !tbaa !29
  %117 = getelementptr inbounds nuw %struct.H5O_mesg_t, ptr %116, i32 0, i32 4
  %118 = load i32, ptr %117, align 8, !tbaa !56
  %119 = zext i32 %118 to i64
  %120 = getelementptr inbounds nuw %struct.H5O_chunk_t, ptr %115, i64 %119
  %121 = getelementptr inbounds nuw %struct.H5O_chunk_t, ptr %120, i32 0, i32 3
  %122 = load ptr, ptr %121, align 8, !tbaa !50
  %123 = load ptr, ptr %6, align 8, !tbaa !3
  %124 = getelementptr inbounds nuw %struct.H5O_t, ptr %123, i32 0, i32 22
  %125 = load ptr, ptr %124, align 8, !tbaa !43
  %126 = load ptr, ptr %7, align 8, !tbaa !29
  %127 = getelementptr inbounds nuw %struct.H5O_mesg_t, ptr %126, i32 0, i32 4
  %128 = load i32, ptr %127, align 8, !tbaa !56
  %129 = zext i32 %128 to i64
  %130 = getelementptr inbounds nuw %struct.H5O_chunk_t, ptr %125, i64 %129
  %131 = getelementptr inbounds nuw %struct.H5O_chunk_t, ptr %130, i32 0, i32 1
  %132 = load i64, ptr %131, align 8, !tbaa !48
  %133 = getelementptr inbounds nuw i8, ptr %122, i64 %132
  %134 = load ptr, ptr %6, align 8, !tbaa !3
  %135 = getelementptr inbounds nuw %struct.H5O_t, ptr %134, i32 0, i32 7
  %136 = load i8, ptr %135, align 8, !tbaa !39
  %137 = zext i8 %136 to i32
  %138 = icmp eq i32 %137, 1
  %139 = select i1 %138, i32 0, i32 4
  %140 = sext i32 %139 to i64
  %141 = load ptr, ptr %6, align 8, !tbaa !3
  %142 = getelementptr inbounds nuw %struct.H5O_t, ptr %141, i32 0, i32 22
  %143 = load ptr, ptr %142, align 8, !tbaa !43
  %144 = load ptr, ptr %7, align 8, !tbaa !29
  %145 = getelementptr inbounds nuw %struct.H5O_mesg_t, ptr %144, i32 0, i32 4
  %146 = load i32, ptr %145, align 8, !tbaa !56
  %147 = zext i32 %146 to i64
  %148 = getelementptr inbounds nuw %struct.H5O_chunk_t, ptr %143, i64 %147
  %149 = getelementptr inbounds nuw %struct.H5O_chunk_t, ptr %148, i32 0, i32 2
  %150 = load i64, ptr %149, align 8, !tbaa !49
  %151 = add i64 %140, %150
  %152 = sub i64 0, %151
  %153 = getelementptr inbounds i8, ptr %133, i64 %152
  %154 = load ptr, ptr %6, align 8, !tbaa !3
  %155 = getelementptr inbounds nuw %struct.H5O_t, ptr %154, i32 0, i32 22
  %156 = load ptr, ptr %155, align 8, !tbaa !43
  %157 = load ptr, ptr %7, align 8, !tbaa !29
  %158 = getelementptr inbounds nuw %struct.H5O_mesg_t, ptr %157, i32 0, i32 4
  %159 = load i32, ptr %158, align 8, !tbaa !56
  %160 = zext i32 %159 to i64
  %161 = getelementptr inbounds nuw %struct.H5O_chunk_t, ptr %156, i64 %160
  %162 = getelementptr inbounds nuw %struct.H5O_chunk_t, ptr %161, i32 0, i32 2
  %163 = load i64, ptr %162, align 8, !tbaa !49
  %164 = call i32 @H5O__eliminate_gap(ptr noundef %111, ptr noundef %10, ptr noundef %112, ptr noundef %153, i64 noundef %163)
  %165 = icmp slt i32 %164, 0
  br i1 %165, label %166, label %185

166:                                              ; preds = %110
  br label %167

167:                                              ; preds = %166
  br label %168

168:                                              ; preds = %167
  br label %169

169:                                              ; preds = %168
  %170 = load i64, ptr @H5E_OHDR_g, align 8, !tbaa !8
  %171 = load i64, ptr @H5E_CANTREMOVE_g, align 8, !tbaa !8
  %172 = call i32 (ptr, ptr, i32, i64, i64, ptr, ...) @H5E_printf_stack(ptr noundef @.str, ptr noundef @__func__.H5O__release_mesg, i32 noundef 1369, i64 noundef %170, i64 noundef %171, ptr noundef @.str.20)
  br label %173

173:                                              ; preds = %169
  br label %174

174:                                              ; preds = %173
  store i8 1, ptr %12, align 1, !tbaa !12
  %175 = load i8, ptr %12, align 1, !tbaa !12, !range !14, !noundef !15
  %176 = trunc i8 %175 to i1
  %177 = zext i1 %176 to i8
  store i8 %177, ptr %12, align 1, !tbaa !12
  br label %178

178:                                              ; preds = %174
  br label %179

179:                                              ; preds = %178
  br label %180

180:                                              ; preds = %179
  store i32 -1, ptr %11, align 4, !tbaa !10
  br label %187

181:                                              ; No predecessors!
  br label %182

182:                                              ; preds = %181
  br label %183

183:                                              ; preds = %182
  br label %184

184:                                              ; preds = %183
  br label %185

185:                                              ; preds = %184, %110
  br label %186

186:                                              ; preds = %185, %84
  br label %187

187:                                              ; preds = %186, %180, %79, %51
  %188 = load ptr, ptr %9, align 8, !tbaa !55
  %189 = icmp ne ptr %188, null
  br i1 %189, label %190, label %213

190:                                              ; preds = %187
  %191 = load ptr, ptr %5, align 8, !tbaa !30
  %192 = load ptr, ptr %9, align 8, !tbaa !55
  %193 = load i8, ptr %10, align 1, !tbaa !12, !range !14, !noundef !15
  %194 = trunc i8 %193 to i1
  %195 = call i32 @H5O__chunk_unprotect(ptr noundef %191, ptr noundef %192, i1 noundef zeroext %194)
  %196 = icmp slt i32 %195, 0
  br i1 %196, label %197, label %213

197:                                              ; preds = %190
  br label %198

198:                                              ; preds = %197
  br label %199

199:                                              ; preds = %198
  br label %200

200:                                              ; preds = %199
  %201 = load i64, ptr @H5E_OHDR_g, align 8, !tbaa !8
  %202 = load i64, ptr @H5E_CANTUNPROTECT_g, align 8, !tbaa !8
  %203 = call i32 (ptr, ptr, i32, i64, i64, ptr, ...) @H5E_printf_stack(ptr noundef @.str, ptr noundef @__func__.H5O__release_mesg, i32 noundef 1375, i64 noundef %201, i64 noundef %202, ptr noundef @.str.9)
  br label %204

204:                                              ; preds = %200
  br label %205

205:                                              ; preds = %204
  store i8 1, ptr %12, align 1, !tbaa !12
  %206 = load i8, ptr %12, align 1, !tbaa !12, !range !14, !noundef !15
  %207 = trunc i8 %206 to i1
  %208 = zext i1 %207 to i8
  store i8 %208, ptr %12, align 1, !tbaa !12
  br label %209

209:                                              ; preds = %205
  br label %210

210:                                              ; preds = %209
  store i32 -1, ptr %11, align 4, !tbaa !10
  br label %211

211:                                              ; preds = %210
  br label %212

212:                                              ; preds = %211
  br label %213

213:                                              ; preds = %212, %190, %187
  br label %214

214:                                              ; preds = %213, %20
  %215 = load i32, ptr %11, align 4, !tbaa !10
  call void @llvm.lifetime.end.p0(i64 1, ptr %12) #6
  call void @llvm.lifetime.end.p0(i64 4, ptr %11) #6
  call void @llvm.lifetime.end.p0(i64 1, ptr %10) #6
  call void @llvm.lifetime.end.p0(i64 8, ptr %9) #6
  ret i32 %215
}