; Function Attrs: nounwind uwtable
define range(i32 -1, 1) i32 @H5O__release_mesg(ptr noundef %0, ptr noundef %1, ptr noundef %2, i1 noundef zeroext %3) local_unnamed_addr #0 {
  %5 = alloca i8, align 1
  call void @llvm.lifetime.start.p0(i64 1, ptr nonnull %5) #7
  %6 = load i8, ptr @H5O_init_g, align 1, !tbaa !3, !range !7, !noundef !8
  %7 = trunc nuw i8 %6 to i1
  %8 = load i8, ptr @H5_libterm_g, align 1, !range !7
  %9 = trunc nuw i8 %8 to i1
  %10 = xor i1 %9, true
  %11 = select i1 %7, i1 true, i1 %10
  br i1 %11, label %12, label %.thread, !prof !9

12:                                               ; preds = %4
  br i1 %3, label %13, label %20

13:                                               ; preds = %12
  %14 = tail call i32 @H5O__delete_mesg(ptr noundef %0, ptr noundef %1, ptr noundef %2) #7
  %15 = icmp slt i32 %14, 0
  br i1 %15, label %16, label %20

16:                                               ; preds = %13
  %17 = load i64, ptr @H5E_OHDR_g, align 8, !tbaa !26
  %18 = load i64, ptr @H5E_CANTDELETE_g, align 8, !tbaa !26
  %19 = tail call i32 (ptr, ptr, i32, i64, i64, ptr, ...) @H5E_printf_stack(ptr noundef nonnull @.str, ptr noundef nonnull @__func__.H5O__release_mesg, i32 noundef 1340, i64 noundef %17, i64 noundef %18, ptr noundef nonnull @.str.18) #7
  br label %.thread

20:                                               ; preds = %13, %12
  %21 = getelementptr inbounds nuw i8, ptr %2, i64 16
  %22 = load i32, ptr %21, align 8, !tbaa !43
  %23 = tail call ptr @H5O__chunk_protect(ptr noundef %0, ptr noundef %1, i32 noundef %22) #7
  %24 = icmp eq ptr %23, null
  br i1 %24, label %25, label %29

25:                                               ; preds = %20
  %26 = load i64, ptr @H5E_OHDR_g, align 8, !tbaa !26
  %27 = load i64, ptr @H5E_CANTPROTECT_g, align 8, !tbaa !26
  %28 = tail call i32 (ptr, ptr, i32, i64, i64, ptr, ...) @H5E_printf_stack(ptr noundef nonnull @.str, ptr noundef nonnull @__func__.H5O__release_mesg, i32 noundef 1344, i64 noundef %26, i64 noundef %27, ptr noundef nonnull @.str.19) #7
  br label %.thread

29:                                               ; preds = %20
  %30 = tail call i32 @H5O__msg_free_mesg(ptr noundef nonnull %2) #7
  store ptr @H5O_MSG_NULL, ptr %2, align 8, !tbaa !46
  %31 = getelementptr inbounds nuw i8, ptr %2, i64 32
  %32 = load ptr, ptr %31, align 8, !tbaa !50
  %33 = getelementptr inbounds nuw i8, ptr %2, i64 40
  %34 = load i64, ptr %33, align 8, !tbaa !49
  tail call void @llvm.memset.p0.i64(ptr align 1 %32, i8 0, i64 %34, i1 false)
  %35 = getelementptr inbounds nuw i8, ptr %2, i64 9
  store i8 0, ptr %35, align 1, !tbaa !70
  %36 = getelementptr inbounds nuw i8, ptr %2, i64 8
  store i8 1, ptr %36, align 8, !tbaa !53
  store i8 1, ptr %5, align 1, !tbaa !3
  %37 = getelementptr inbounds nuw i8, ptr %1, i64 392
  %38 = load ptr, ptr %37, align 8, !tbaa !31
  %39 = load i32, ptr %21, align 8, !tbaa !43
  %40 = zext i32 %39 to i64
  %41 = getelementptr inbounds nuw %struct.H5O_chunk_t, ptr %38, i64 %40
  %42 = getelementptr inbounds nuw i8, ptr %41, i64 16
  %43 = load i64, ptr %42, align 8, !tbaa !37
  %.not = icmp eq i64 %43, 0
  br i1 %.not, label %55, label %44

44:                                               ; preds = %29
  %45 = getelementptr inbounds nuw i8, ptr %41, i64 24
  %46 = load ptr, ptr %45, align 8, !tbaa !38
  %47 = getelementptr inbounds nuw i8, ptr %41, i64 8
  %48 = load i64, ptr %47, align 8, !tbaa !36
  %49 = getelementptr inbounds nuw i8, ptr %46, i64 %48
  %50 = getelementptr inbounds nuw i8, ptr %1, i64 288
  %51 = load i8, ptr %50, align 8, !tbaa !27
  %52 = icmp eq i8 %51, 1
  %.neg = select i1 %52, i64 0, i64 -4
  %.neg37 = sub i64 %.neg, %43
  %53 = getelementptr inbounds i8, ptr %49, i64 %.neg37
  call fastcc void @H5O__eliminate_gap(ptr noundef nonnull %1, ptr noundef %5, ptr noundef nonnull %2, ptr noundef %53, i64 noundef %43)
  %.pre = load i8, ptr %5, align 1, !tbaa !3, !range !7
  %54 = trunc nuw i8 %.pre to i1
  br label %55

55:                                               ; preds = %29, %44
  %56 = phi i1 [ true, %29 ], [ %54, %44 ]
  %57 = tail call i32 @H5O__chunk_unprotect(ptr noundef %0, ptr noundef nonnull %23, i1 noundef zeroext %56) #7
  %58 = icmp slt i32 %57, 0
  br i1 %58, label %59, label %.thread

59:                                               ; preds = %55
  %60 = load i64, ptr @H5E_OHDR_g, align 8, !tbaa !26
  %61 = load i64, ptr @H5E_CANTUNPROTECT_g, align 8, !tbaa !26
  %62 = tail call i32 (ptr, ptr, i32, i64, i64, ptr, ...) @H5E_printf_stack(ptr noundef nonnull @.str, ptr noundef nonnull @__func__.H5O__release_mesg, i32 noundef 1375, i64 noundef %60, i64 noundef %61, ptr noundef nonnull @.str.9) #7
  br label %.thread

.thread:                                          ; preds = %25, %16, %55, %59, %4
  %.0 = phi i32 [ -1, %59 ], [ 0, %55 ], [ 0, %4 ], [ -1, %16 ], [ -1, %25 ]
  call void @llvm.lifetime.end.p0(i64 1, ptr nonnull %5) #7
  ret i32 %.0
}